; Function Attrs: mustprogress uwtable
define hidden void @_ZN4cvc58internal11NodeManager14mkFunctionTypeERKSt6vectorINS0_8TypeNodeESaIS3_EE(ptr noalias sret(%"class.cvc5::internal::TypeNode") align 8 %agg.result, ptr noundef nonnull align 8 dereferenceable(3360) %this, ptr noundef nonnull align 8 dereferenceable(24) %sorts) local_unnamed_addr #3 align 2 personality ptr @__gxx_personality_v0 {
entry:
  %ref.tmp.i = alloca %"class.cvc5::internal::NodeBuilder", align 8
  call void @llvm.lifetime.start.p0(i64 120, ptr nonnull %ref.tmp.i)
  call void @_ZN4cvc58internal11NodeBuilderC1EPNS0_11NodeManagerENS0_4kind6Kind_tE(ptr noundef nonnull align 8 dereferenceable(116) %ref.tmp.i, ptr noundef nonnull %this, i32 noundef 25), !noalias !110
  %call.i = invoke noundef nonnull align 8 dereferenceable(116) ptr @_ZN4cvc58internal11NodeBuilder6appendERKSt6vectorINS0_8TypeNodeESaIS3_EE(ptr noundef nonnull align 8 dereferenceable(116) %ref.tmp.i, ptr noundef nonnull align 8 dereferenceable(24) %sorts)
          to label %invoke.cont.i unwind label %lpad.i, !noalias !110

invoke.cont.i:                                    ; preds = %entry
  invoke void @_ZN4cvc58internal11NodeBuilder17constructTypeNodeEv(ptr sret(%"class.cvc5::internal::TypeNode") align 8 %agg.result, ptr noundef nonnull align 8 dereferenceable(116) %call.i)
          to label %_ZN4cvc58internal11NodeManager10mkTypeNodeENS0_4kind6Kind_tERKSt6vectorINS0_8TypeNodeESaIS5_EE.exit unwind label %lpad.i

lpad.i:                                           ; preds = %invoke.cont.i, %entry
  %0 = landingpad { ptr, i32 }
          cleanup
  call void @_ZN4cvc58internal11NodeBuilderD1Ev(ptr noundef nonnull align 8 dereferenceable(116) %ref.tmp.i) #7
  resume { ptr, i32 } %0

_ZN4cvc58internal11NodeManager10mkTypeNodeENS0_4kind6Kind_tERKSt6vectorINS0_8TypeNodeESaIS5_EE.exit: ; preds = %invoke.cont.i
  call void @_ZN4cvc58internal11NodeBuilderD1Ev(ptr noundef nonnull align 8 dereferenceable(116) %ref.tmp.i) #7
  call void @llvm.lifetime.end.p0(i64 120, ptr nonnull %ref.tmp.i)
  ret void
}